target datalayout = "e-m:e-p270:32:32-p271:32:32-p272:64:64-i64:64-i128:128-f80:128-n8:16:32:64-S128"
target triple = "x86_64-pc-linux-gnu"

%struct._lv_vector_draw_dsc_t = type { %struct._lv_vector_fill_dsc_t, %struct._lv_vector_stroke_dsc_t, %struct._lv_matrix_t, i32, %struct.lv_area_t }
%struct._lv_vector_fill_dsc_t = type { i32, %struct.lv_color32_t, i8, i32, %struct._lv_draw_image_dsc_t, %struct._lv_vector_gradient_t, %struct._lv_matrix_t }
%struct.lv_color32_t = type { i8, i8, i8, i8 }
%struct._lv_draw_image_dsc_t = type { %struct.lv_draw_dsc_base_t, ptr, %struct.lv_image_header_t, i32, i32, i32, i32, i32, %struct.lv_point_t, %struct.lv_color_t, i8, i8, i8, ptr, %struct.lv_area_t, i32, ptr }
%struct.lv_draw_dsc_base_t = type { ptr, i32, i32, i32, ptr, i64, ptr }
%struct.lv_image_header_t = type <{ i64, i32 }>
%struct.lv_point_t = type { i32, i32 }
%struct.lv_color_t = type { i8, i8, i8 }
%struct._lv_vector_gradient_t = type { i32, [2 x %struct.lv_gradient_stop_t], i16, float, float, float, float, float, float, float, i32 }
%struct.lv_gradient_stop_t = type { %struct.lv_color_t, i8, i8 }
%struct._lv_vector_stroke_dsc_t = type { i32, %struct.lv_color32_t, i8, float, %struct._lv_array_t, i32, i32, i16, %struct._lv_vector_gradient_t, %struct._lv_matrix_t }
%struct._lv_array_t = type { ptr, i32, i32, i32, i8 }
%struct._lv_matrix_t = type { [3 x [3 x float]] }
%struct.lv_area_t = type { i32, i32, i32, i32 }
%struct._lv_svg_render_obj = type { ptr, i32, ptr, %struct._lv_vector_draw_dsc_t, %struct._lv_matrix_t, ptr, ptr, ptr, ptr, ptr, ptr, ptr, ptr, ptr }
%struct.lv_svg_render_viewport_t = type { %struct._lv_svg_render_obj, float, float, i8 }
%struct.lv_svg_attr_t = type { i8, i8, i8, %union.lv_svg_attr_value_t }
%union.lv_svg_attr_value_t = type { ptr }

; Function Attrs: nounwind uwtable
define internal void @_set_viewport_attr(ptr noundef %0, ptr noundef %1, ptr noundef %2) #0 {
  %4 = alloca ptr, align 8
  %5 = alloca ptr, align 8
  %6 = alloca ptr, align 8
  %7 = alloca ptr, align 8
  %8 = alloca ptr, align 8
  %9 = alloca float, align 4
  %10 = alloca float, align 4
  %11 = alloca float, align 4
  %12 = alloca float, align 4
  %13 = alloca %struct.lv_color32_t, align 1
  %14 = alloca %struct.lv_color_t, align 1
  %15 = alloca i24, align 4
  store ptr %0, ptr %4, align 8, !tbaa !3
  store ptr %1, ptr %5, align 8, !tbaa !3
  store ptr %2, ptr %6, align 8, !tbaa !3
  call void @llvm.lifetime.start.p0(i64 8, ptr %7) #8
  %16 = load ptr, ptr %4, align 8, !tbaa !3
  store ptr %16, ptr %7, align 8, !tbaa !3
  %17 = load ptr, ptr %6, align 8, !tbaa !3
  %18 = getelementptr inbounds nuw %struct.lv_svg_attr_t, ptr %17, i32 0, i32 0
  %19 = load i8, ptr %18, align 8, !tbaa !154
  %20 = zext i8 %19 to i32
  switch i32 %20, label %147 [
    i32 13, label %21
    i32 14, label %27
    i32 5, label %33
    i32 7, label %96
    i32 8, label %131
  ]

21:                                               ; preds = %3
  %22 = load ptr, ptr %6, align 8, !tbaa !3
  %23 = getelementptr inbounds nuw %struct.lv_svg_attr_t, ptr %22, i32 0, i32 3
  %24 = load float, ptr %23, align 8, !tbaa !79
  %25 = load ptr, ptr %7, align 8, !tbaa !3
  %26 = getelementptr inbounds nuw %struct.lv_svg_render_viewport_t, ptr %25, i32 0, i32 1
  store float %24, ptr %26, align 8, !tbaa !150
  br label %147

27:                                               ; preds = %3
  %28 = load ptr, ptr %6, align 8, !tbaa !3
  %29 = getelementptr inbounds nuw %struct.lv_svg_attr_t, ptr %28, i32 0, i32 3
  %30 = load float, ptr %29, align 8, !tbaa !79
  %31 = load ptr, ptr %7, align 8, !tbaa !3
  %32 = getelementptr inbounds nuw %struct.lv_svg_render_viewport_t, ptr %31, i32 0, i32 2
  store float %30, ptr %32, align 4, !tbaa !152
  br label %147

33:                                               ; preds = %3
  %34 = load ptr, ptr %6, align 8, !tbaa !3
  %35 = getelementptr inbounds nuw %struct.lv_svg_attr_t, ptr %34, i32 0, i32 2
  %36 = load i8, ptr %35, align 2, !tbaa !156
  %37 = zext i8 %36 to i32
  %38 = icmp eq i32 %37, 1
  br i1 %38, label %39, label %95

39:                                               ; preds = %33
  call void @llvm.lifetime.start.p0(i64 8, ptr %8) #8
  %40 = load ptr, ptr %6, align 8, !tbaa !3
  %41 = getelementptr inbounds nuw %struct.lv_svg_attr_t, ptr %40, i32 0, i32 3
  %42 = load ptr, ptr %41, align 8, !tbaa !79
  store ptr %42, ptr %8, align 8, !tbaa !3
  call void @llvm.lifetime.start.p0(i64 4, ptr %9) #8
  store float 1.000000e+00, ptr %9, align 4, !tbaa !157
  call void @llvm.lifetime.start.p0(i64 4, ptr %10) #8
  store float 1.000000e+00, ptr %10, align 4, !tbaa !157
  call void @llvm.lifetime.start.p0(i64 4, ptr %11) #8
  %43 = load ptr, ptr %8, align 8, !tbaa !3
  %44 = getelementptr inbounds float, ptr %43, i64 0
  %45 = load float, ptr %44, align 4, !tbaa !157
  store float %45, ptr %11, align 4, !tbaa !157
  call void @llvm.lifetime.start.p0(i64 4, ptr %12) #8
  %46 = load ptr, ptr %8, align 8, !tbaa !3
  %47 = getelementptr inbounds float, ptr %46, i64 1
  %48 = load float, ptr %47, align 4, !tbaa !157
  store float %48, ptr %12, align 4, !tbaa !157
  %49 = load ptr, ptr %7, align 8, !tbaa !3
  %50 = getelementptr inbounds nuw %struct.lv_svg_render_viewport_t, ptr %49, i32 0, i32 1
  %51 = load float, ptr %50, align 8, !tbaa !150
  %52 = fcmp ogt float %51, 0.000000e+00
  br i1 %52, label %53, label %66

53:                                               ; preds = %39
  %54 = load ptr, ptr %8, align 8, !tbaa !3
  %55 = getelementptr inbounds float, ptr %54, i64 2
  %56 = load float, ptr %55, align 4, !tbaa !157
  %57 = fcmp ogt float %56, 0.000000e+00
  br i1 %57, label %58, label %66

58:                                               ; preds = %53
  %59 = load ptr, ptr %7, align 8, !tbaa !3
  %60 = getelementptr inbounds nuw %struct.lv_svg_render_viewport_t, ptr %59, i32 0, i32 1
  %61 = load float, ptr %60, align 8, !tbaa !150
  %62 = load ptr, ptr %8, align 8, !tbaa !3
  %63 = getelementptr inbounds float, ptr %62, i64 2
  %64 = load float, ptr %63, align 4, !tbaa !157
  %65 = fdiv float %61, %64
  store float %65, ptr %9, align 4, !tbaa !157
  br label %66

66:                                               ; preds = %58, %53, %39
  %67 = load ptr, ptr %7, align 8, !tbaa !3
  %68 = getelementptr inbounds nuw %struct.lv_svg_render_viewport_t, ptr %67, i32 0, i32 2
  %69 = load float, ptr %68, align 4, !tbaa !152
  %70 = fcmp ogt float %69, 0.000000e+00
  br i1 %70, label %71, label %84

71:                                               ; preds = %66
  %72 = load ptr, ptr %8, align 8, !tbaa !3
  %73 = getelementptr inbounds float, ptr %72, i64 3
  %74 = load float, ptr %73, align 4, !tbaa !157
  %75 = fcmp ogt float %74, 0.000000e+00
  br i1 %75, label %76, label %84

76:                                               ; preds = %71
  %77 = load ptr, ptr %7, align 8, !tbaa !3
  %78 = getelementptr inbounds nuw %struct.lv_svg_render_viewport_t, ptr %77, i32 0, i32 2
  %79 = load float, ptr %78, align 4, !tbaa !152
  %80 = load ptr, ptr %8, align 8, !tbaa !3
  %81 = getelementptr inbounds float, ptr %80, i64 3
  %82 = load float, ptr %81, align 4, !tbaa !157
  %83 = fdiv float %79, %82
  store float %83, ptr %10, align 4, !tbaa !157
  br label %84

84:                                               ; preds = %76, %71, %66
  %85 = load ptr, ptr %4, align 8, !tbaa !3
  %86 = getelementptr inbounds nuw %struct._lv_svg_render_obj, ptr %85, i32 0, i32 4
  %87 = load float, ptr %9, align 4, !tbaa !157
  %88 = load float, ptr %10, align 4, !tbaa !157
  call void @lv_matrix_scale(ptr noundef %86, float noundef %87, float noundef %88)
  %89 = load ptr, ptr %4, align 8, !tbaa !3
  %90 = getelementptr inbounds nuw %struct._lv_svg_render_obj, ptr %89, i32 0, i32 4
  %91 = load float, ptr %11, align 4, !tbaa !157
  %92 = fneg float %91
  %93 = load float, ptr %12, align 4, !tbaa !157
  %94 = fneg float %93
  call void @lv_matrix_translate(ptr noundef %90, float noundef %92, float noundef %94)
  call void @llvm.lifetime.end.p0(i64 4, ptr %12) #8
  call void @llvm.lifetime.end.p0(i64 4, ptr %11) #8
  call void @llvm.lifetime.end.p0(i64 4, ptr %10) #8
  call void @llvm.lifetime.end.p0(i64 4, ptr %9) #8
  call void @llvm.lifetime.end.p0(i64 8, ptr %8) #8
  br label %95

95:                                               ; preds = %84, %33
  br label %147

96:                                               ; preds = %3
  %97 = load ptr, ptr %6, align 8, !tbaa !3
  %98 = getelementptr inbounds nuw %struct.lv_svg_attr_t, ptr %97, i32 0, i32 2
  %99 = load i8, ptr %98, align 2, !tbaa !156
  %100 = zext i8 %99 to i32
  %101 = icmp eq i32 %100, 1
  br i1 %101, label %102, label %120

102:                                              ; preds = %96
  %103 = load ptr, ptr %6, align 8, !tbaa !3
  %104 = getelementptr inbounds nuw %struct.lv_svg_attr_t, ptr %103, i32 0, i32 1
  %105 = load i8, ptr %104, align 1, !tbaa !158
  %106 = zext i8 %105 to i32
  %107 = icmp eq i32 %106, 0
  br i1 %107, label %108, label %120

108:                                              ; preds = %102
  %109 = load ptr, ptr %5, align 8, !tbaa !3
  %110 = getelementptr inbounds nuw %struct._lv_vector_draw_dsc_t, ptr %109, i32 0, i32 0
  %111 = getelementptr inbounds nuw %struct._lv_vector_fill_dsc_t, ptr %110, i32 0, i32 1
  call void @llvm.lifetime.start.p0(i64 4, ptr %13) #8
  %112 = load ptr, ptr %6, align 8, !tbaa !3
  %113 = getelementptr inbounds nuw %struct.lv_svg_attr_t, ptr %112, i32 0, i32 3
  %114 = load i32, ptr %113, align 8, !tbaa !79
  %115 = call i24 @lv_color_hex(i32 noundef %114)
  store i24 %115, ptr %14, align 1
  call void @llvm.memcpy.p0.p0.i64(ptr align 4 %15, ptr align 1 %14, i64 3, i1 false)
  %116 = load i24, ptr %15, align 4
  %117 = call i32 @lv_color_to_32(i24 %116, i8 noundef zeroext -1)
  store i32 %117, ptr %13, align 1
  call void @llvm.memcpy.p0.p0.i64(ptr align 4 %111, ptr align 1 %13, i64 4, i1 false), !tbaa.struct !78
  call void @llvm.lifetime.end.p0(i64 4, ptr %13) #8
  %118 = load ptr, ptr %7, align 8, !tbaa !3
  %119 = getelementptr inbounds nuw %struct.lv_svg_render_viewport_t, ptr %118, i32 0, i32 3
  store i8 1, ptr %119, align 8, !tbaa !147
  br label %130

120:                                              ; preds = %102, %96
  %121 = load ptr, ptr %6, align 8, !tbaa !3
  %122 = getelementptr inbounds nuw %struct.lv_svg_attr_t, ptr %121, i32 0, i32 2
  %123 = load i8, ptr %122, align 2, !tbaa !156
  %124 = zext i8 %123 to i32
  %125 = icmp eq i32 %124, 0
  br i1 %125, label %126, label %129

126:                                              ; preds = %120
  %127 = load ptr, ptr %7, align 8, !tbaa !3
  %128 = getelementptr inbounds nuw %struct.lv_svg_render_viewport_t, ptr %127, i32 0, i32 3
  store i8 0, ptr %128, align 8, !tbaa !147
  br label %129

129:                                              ; preds = %126, %120
  br label %130

130:                                              ; preds = %129, %108
  br label %147

131:                                              ; preds = %3
  %132 = load ptr, ptr %6, align 8, !tbaa !3
  %133 = getelementptr inbounds nuw %struct.lv_svg_attr_t, ptr %132, i32 0, i32 2
  %134 = load i8, ptr %133, align 2, !tbaa !156
  %135 = zext i8 %134 to i32
  %136 = icmp eq i32 %135, 1
  br i1 %136, label %137, label %146

137:                                              ; preds = %131
  %138 = load ptr, ptr %6, align 8, !tbaa !3
  %139 = getelementptr inbounds nuw %struct.lv_svg_attr_t, ptr %138, i32 0, i32 3
  %140 = load float, ptr %139, align 8, !tbaa !79
  %141 = fmul float %140, 2.550000e+02
  %142 = fptoui float %141 to i8
  %143 = load ptr, ptr %5, align 8, !tbaa !3
  %144 = getelementptr inbounds nuw %struct._lv_vector_draw_dsc_t, ptr %143, i32 0, i32 0
  %145 = getelementptr inbounds nuw %struct._lv_vector_fill_dsc_t, ptr %144, i32 0, i32 2
  store i8 %142, ptr %145, align 8, !tbaa !159
  br label %146

146:                                              ; preds = %137, %131
  br label %147

147:                                              ; preds = %3, %146, %130, %95, %27, %21
  call void @llvm.lifetime.end.p0(i64 8, ptr %7) #8
  ret void
}