; Function Attrs: nounwind uwtable
define internal void @_set_viewport_attr(ptr noundef %0, ptr nocapture noundef writeonly %1, ptr nocapture noundef readonly %2) #0 {
  %4 = load i8, ptr %2, align 8, !tbaa !163
  switch i8 %4, label %.thread [
    i8 13, label %5
    i8 14, label %9
    i8 5, label %13
    i8 7, label %46
    i8 8, label %62
  ]

5:                                                ; preds = %3
  %6 = getelementptr inbounds nuw i8, ptr %2, i64 8
  %7 = load float, ptr %6, align 8, !tbaa !165
  %8 = getelementptr inbounds nuw i8, ptr %0, i64 576
  store float %7, ptr %8, align 8, !tbaa !159
  br label %.thread

9:                                                ; preds = %3
  %10 = getelementptr inbounds nuw i8, ptr %2, i64 8
  %11 = load float, ptr %10, align 8, !tbaa !165
  %12 = getelementptr inbounds nuw i8, ptr %0, i64 580
  store float %11, ptr %12, align 4, !tbaa !161
  br label %.thread

13:                                               ; preds = %3
  %14 = getelementptr inbounds nuw i8, ptr %2, i64 2
  %15 = load i8, ptr %14, align 2, !tbaa !166
  %16 = icmp eq i8 %15, 1
  br i1 %16, label %17, label %.thread

17:                                               ; preds = %13
  %18 = getelementptr inbounds nuw i8, ptr %2, i64 8
  %19 = load ptr, ptr %18, align 8, !tbaa !165
  %20 = load float, ptr %19, align 4, !tbaa !167
  %21 = getelementptr inbounds i8, ptr %19, i64 4
  %22 = load float, ptr %21, align 4, !tbaa !167
  %23 = getelementptr inbounds nuw i8, ptr %0, i64 576
  %24 = load float, ptr %23, align 8, !tbaa !159
  %25 = fcmp ogt float %24, 0.000000e+00
  br i1 %25, label %26, label %32

26:                                               ; preds = %17
  %27 = getelementptr inbounds i8, ptr %19, i64 8
  %28 = load float, ptr %27, align 4, !tbaa !167
  %29 = fcmp ogt float %28, 0.000000e+00
  br i1 %29, label %30, label %32

30:                                               ; preds = %26
  %31 = fdiv float %24, %28
  br label %32

32:                                               ; preds = %30, %26, %17
  %.0 = phi float [ %31, %30 ], [ 1.000000e+00, %26 ], [ 1.000000e+00, %17 ]
  %33 = getelementptr inbounds nuw i8, ptr %0, i64 580
  %34 = load float, ptr %33, align 4, !tbaa !161
  %35 = fcmp ogt float %34, 0.000000e+00
  br i1 %35, label %36, label %42

36:                                               ; preds = %32
  %37 = getelementptr inbounds i8, ptr %19, i64 12
  %38 = load float, ptr %37, align 4, !tbaa !167
  %39 = fcmp ogt float %38, 0.000000e+00
  br i1 %39, label %40, label %42

40:                                               ; preds = %36
  %41 = fdiv float %34, %38
  br label %42

42:                                               ; preds = %40, %36, %32
  %.035 = phi float [ %41, %40 ], [ 1.000000e+00, %36 ], [ 1.000000e+00, %32 ]
  %43 = getelementptr inbounds nuw i8, ptr %0, i64 464
  tail call void @lv_matrix_scale(ptr noundef nonnull %43, float noundef %.0, float noundef %.035) #9
  %44 = fneg float %20
  %45 = fneg float %22
  tail call void @lv_matrix_translate(ptr noundef nonnull %43, float noundef %44, float noundef %45) #9
  br label %.thread

46:                                               ; preds = %3
  %47 = getelementptr inbounds nuw i8, ptr %2, i64 2
  %48 = load i8, ptr %47, align 2, !tbaa !166
  switch i8 %48, label %.thread [
    i8 1, label %49
    i8 0, label %60
  ]

49:                                               ; preds = %46
  %50 = getelementptr inbounds nuw i8, ptr %2, i64 1
  %51 = load i8, ptr %50, align 1, !tbaa !168
  %52 = icmp eq i8 %51, 0
  br i1 %52, label %53, label %.thread

53:                                               ; preds = %49
  %54 = getelementptr inbounds nuw i8, ptr %1, i64 4
  %55 = getelementptr inbounds nuw i8, ptr %2, i64 8
  %56 = load i32, ptr %55, align 8, !tbaa !165
  %57 = tail call i24 @lv_color_hex(i32 noundef %56) #9
  %58 = tail call i32 @lv_color_to_32(i24 %57, i8 noundef zeroext -1) #9
  store i32 %58, ptr %54, align 4
  %59 = getelementptr inbounds nuw i8, ptr %0, i64 584
  store i8 1, ptr %59, align 8, !tbaa !156
  br label %.thread

60:                                               ; preds = %46
  %61 = getelementptr inbounds nuw i8, ptr %0, i64 584
  store i8 0, ptr %61, align 8, !tbaa !156
  br label %.thread

62:                                               ; preds = %3
  %63 = getelementptr inbounds nuw i8, ptr %2, i64 2
  %64 = load i8, ptr %63, align 2, !tbaa !166
  %65 = icmp eq i8 %64, 1
  br i1 %65, label %66, label %.thread

66:                                               ; preds = %62
  %67 = getelementptr inbounds nuw i8, ptr %2, i64 8
  %68 = load float, ptr %67, align 8, !tbaa !165
  %69 = fmul float %68, 2.550000e+02
  %70 = fptoui float %69 to i8
  %71 = getelementptr inbounds nuw i8, ptr %1, i64 8
  store i8 %70, ptr %71, align 8, !tbaa !169
  br label %.thread

.thread:                                          ; preds = %46, %49, %62, %66, %53, %60, %13, %42, %9, %5, %3
  ret void
}